target datalayout = "e-m:e-p270:32:32-p271:32:32-p272:64:64-i64:64-i128:128-f80:128-n8:16:32:64-S128"
target triple = "x86_64-unknown-linux-gnu"

%"class.google::protobuf::internal::InternalMetadata" = type { i64 }
%"class.google::protobuf::internal::CachedSize" = type { i32 }
%"class.google::protobuf::Message" = type { %"class.google::protobuf::MessageLite" }
%"class.google::protobuf::MessageLite" = type { ptr, %"class.google::protobuf::internal::InternalMetadata" }
%"class.google::protobuf::Value" = type { %"class.google::protobuf::Message", %union.anon.5 }
%union.anon.5 = type { %"struct.google::protobuf::Value::Impl_" }
%"struct.google::protobuf::Value::Impl_" = type { %"union.google::protobuf::Value::Impl_::KindUnion", %"class.google::protobuf::internal::CachedSize", [1 x i32] }
%"union.google::protobuf::Value::Impl_::KindUnion" = type { double }

; Function Attrs: mustprogress nounwind uwtable
define linkonce_odr hidden noundef ptr @_ZNK6google8protobuf8internal16InternalMetadata8PtrValueINS0_5ArenaEEEPT_v(ptr noundef nonnull align 8 dereferenceable(8) %this) #5 comdat align 2 {
entry:
  %this.addr = alloca ptr, align 8
  store ptr %this, ptr %this.addr, align 8
  %this1 = load ptr, ptr %this.addr, align 8
  %ptr_ = getelementptr inbounds %"class.google::protobuf::internal::InternalMetadata", ptr %this1, i32 0, i32 0
  %0 = load i64, ptr %ptr_, align 8
  %and = and i64 %0, -2
  %1 = inttoptr i64 %and to ptr
  ret ptr %1
}

; Function Attrs: mustprogress nounwind uwtable
define linkonce_odr hidden noundef ptr @_ZNK6google8protobuf8internal16InternalMetadata8PtrValueINS2_13ContainerBaseEEEPT_v(ptr noundef nonnull align 8 dereferenceable(8) %this) #5 comdat align 2 {
entry:
  %this.addr = alloca ptr, align 8
  store ptr %this, ptr %this.addr, align 8
  %this1 = load ptr, ptr %this.addr, align 8
  %ptr_ = getelementptr inbounds %"class.google::protobuf::internal::InternalMetadata", ptr %this1, i32 0, i32 0
  %0 = load i64, ptr %ptr_, align 8
  %and = and i64 %0, -2
  %1 = inttoptr i64 %and to ptr
  ret ptr %1
}

; Function Attrs: mustprogress nounwind uwtable
define linkonce_odr hidden void @_ZN6google8protobuf5Value20set_has_struct_valueEv(ptr noundef nonnull align 8 dereferenceable(32) %this) #5 comdat align 2 {
entry:
  %this.addr = alloca ptr, align 8
  store ptr %this, ptr %this.addr, align 8
  %this1 = load ptr, ptr %this.addr, align 8
  %0 = getelementptr inbounds %"class.google::protobuf::Value", ptr %this1, i32 0, i32 1
  %_oneof_case_ = getelementptr inbounds %"struct.google::protobuf::Value::Impl_", ptr %0, i32 0, i32 2
  %arrayidx = getelementptr inbounds [1 x i32], ptr %_oneof_case_, i64 0, i64 0
  store i32 5, ptr %arrayidx, align 4
  ret void
}

; Function Attrs: mustprogress uwtable
define linkonce_odr hidden noundef ptr @_ZN6google8protobuf8internal15GetOwnedMessageINS0_6StructEEEPT_PNS0_5ArenaES5_S7_(ptr noundef %message_arena, ptr noundef %submessage, ptr noundef %submessage_arena) #4 comdat {
entry:
  %message_arena.addr = alloca ptr, align 8
  %submessage.addr = alloca ptr, align 8
  %submessage_arena.addr = alloca ptr, align 8
  store ptr %message_arena, ptr %message_arena.addr, align 8
  store ptr %submessage, ptr %submessage.addr, align 8
  store ptr %submessage_arena, ptr %submessage_arena.addr, align 8
  %0 = load ptr, ptr %message_arena.addr, align 8
  %1 = load ptr, ptr %submessage.addr, align 8
  %2 = load ptr, ptr %submessage_arena.addr, align 8
  %call = call noundef ptr @_ZN6google8protobuf8internal23GetOwnedMessageInternalEPNS0_5ArenaEPNS0_11MessageLiteES3_(ptr noundef %0, ptr noundef %1, ptr noundef %2)
  ret ptr %call
}

; Function Attrs: mustprogress uwtable
define linkonce_odr hidden noundef ptr @_ZNK6google8protobuf11MessageLite8GetArenaEv(ptr noundef nonnull align 8 dereferenceable(16) %this) #4 comdat align 2 {
entry:
  %this.addr.i4.i = alloca ptr, align 8
  %this.addr.i.i = alloca ptr, align 8
  %retval.i = alloca ptr, align 8
  %this.addr.i = alloca ptr, align 8
  %this.addr = alloca ptr, align 8
  store ptr %this, ptr %this.addr, align 8
  %this1 = load ptr, ptr %this.addr, align 8
  %_internal_metadata_ = getelementptr inbounds %"class.google::protobuf::MessageLite", ptr %this1, i32 0, i32 1
  store ptr %_internal_metadata_, ptr %this.addr.i, align 8
  %this1.i = load ptr, ptr %this.addr.i, align 8
  store ptr %this1.i, ptr %this.addr.i.i, align 8
  %this1.i.i = load ptr, ptr %this.addr.i.i, align 8
  store ptr %this1.i.i, ptr %this.addr.i4.i, align 8
  %this1.i5.i = load ptr, ptr %this.addr.i4.i, align 8
  %0 = load i64, ptr %this1.i5.i, align 8
  %and.i.i = and i64 %0, 1
  %tobool.i.i = icmp ne i64 %and.i.i, 0
  br i1 %tobool.i.i, label %if.then.i, label %if.else.i

if.then.i:                                        ; preds = %entry
  %call2.i = call noundef ptr @_ZNK6google8protobuf8internal16InternalMetadata8PtrValueINS2_13ContainerBaseEEEPT_v(ptr noundef nonnull align 8 dereferenceable(8) %this1.i)
  %1 = load ptr, ptr %call2.i, align 8
  store ptr %1, ptr %retval.i, align 8
  br label %_ZNK6google8protobuf8internal16InternalMetadata5arenaEv.exit

if.else.i:                                        ; preds = %entry
  %call3.i = call noundef ptr @_ZNK6google8protobuf8internal16InternalMetadata8PtrValueINS0_5ArenaEEEPT_v(ptr noundef nonnull align 8 dereferenceable(8) %this1.i)
  store ptr %call3.i, ptr %retval.i, align 8
  br label %_ZNK6google8protobuf8internal16InternalMetadata5arenaEv.exit

_ZNK6google8protobuf8internal16InternalMetadata5arenaEv.exit: ; preds = %if.else.i, %if.then.i
  %2 = load ptr, ptr %retval.i, align 8
  ret ptr %2
}

; Function Attrs: mustprogress uwtable
define void @_ZN6google8protobuf5Value26set_allocated_struct_valueEPNS0_6StructE(ptr noundef nonnull align 8 dereferenceable(32) %this, ptr noundef %struct_value) #4 align 2 {
entry:
  %this.addr = alloca ptr, align 8
  %struct_value.addr = alloca ptr, align 8
  %message_arena = alloca ptr, align 8
  %submessage_arena = alloca ptr, align 8
  store ptr %this, ptr %this.addr, align 8
  store ptr %struct_value, ptr %struct_value.addr, align 8
  %this1 = load ptr, ptr %this.addr, align 8
  %call = call noundef ptr @_ZNK6google8protobuf11MessageLite8GetArenaEv(ptr noundef nonnull align 8 dereferenceable(16) %this1)
  store ptr %call, ptr %message_arena, align 8
  call void @_ZN6google8protobuf5Value10clear_kindEv(ptr noundef nonnull align 8 dereferenceable(32) %this1)
  %0 = load ptr, ptr %struct_value.addr, align 8
  %tobool = icmp ne ptr %0, null
  br i1 %tobool, label %if.then, label %if.end5

if.then:                                          ; preds = %entry
  %1 = load ptr, ptr %struct_value.addr, align 8
  %call2 = call noundef ptr @_ZNK6google8protobuf11MessageLite8GetArenaEv(ptr noundef nonnull align 8 dereferenceable(16) %1)
  store ptr %call2, ptr %submessage_arena, align 8
  %2 = load ptr, ptr %message_arena, align 8
  %3 = load ptr, ptr %submessage_arena, align 8
  %cmp = icmp ne ptr %2, %3
  br i1 %cmp, label %if.then3, label %if.end

if.then3:                                         ; preds = %if.then
  %4 = load ptr, ptr %message_arena, align 8
  %5 = load ptr, ptr %struct_value.addr, align 8
  %6 = load ptr, ptr %submessage_arena, align 8
  %call4 = call noundef ptr @_ZN6google8protobuf8internal15GetOwnedMessageINS0_6StructEEEPT_PNS0_5ArenaES5_S7_(ptr noundef %4, ptr noundef %5, ptr noundef %6)
  store ptr %call4, ptr %struct_value.addr, align 8
  br label %if.end

if.end:                                           ; preds = %if.then3, %if.then
  call void @_ZN6google8protobuf5Value20set_has_struct_valueEv(ptr noundef nonnull align 8 dereferenceable(32) %this1)
  %7 = load ptr, ptr %struct_value.addr, align 8
  %8 = getelementptr inbounds %"class.google::protobuf::Value", ptr %this1, i32 0, i32 1
  %kind_ = getelementptr inbounds %"struct.google::protobuf::Value::Impl_", ptr %8, i32 0, i32 0
  store ptr %7, ptr %kind_, align 8
  br label %if.end5

if.end5:                                          ; preds = %if.end, %entry
  ret void
}